; Function Attrs: nounwind uwtable
define i64 @densePOTRF(ptr noundef readonly captures(none) %0, i64 noundef %1) local_unnamed_addr #0 {
  %3 = icmp sgt i64 %1, 0
  br i1 %3, label %.lr.ph46, label %.loopexit39

.lr.ph46:                                         ; preds = %2, %._crit_edge
  %.03344 = phi i64 [ %30, %._crit_edge ], [ 0, %2 ]
  %4 = getelementptr inbounds nuw ptr, ptr %0, i64 %.03344
  %5 = load ptr, ptr %4, align 8, !tbaa !16
  %.not.not = icmp eq i64 %.03344, 0
  br i1 %.not.not, label %.loopexit, label %.preheader

.preheader:                                       ; preds = %.lr.ph46, %18
  %.03442 = phi i64 [ %19, %18 ], [ %.03344, %.lr.ph46 ]
  %6 = getelementptr inbounds nuw double, ptr %5, i64 %.03442
  %.promoted = load double, ptr %6, align 8, !tbaa !17
  br label %7

7:                                                ; preds = %.preheader, %7
  %.041 = phi i64 [ 0, %.preheader ], [ %17, %7 ]
  %8 = phi double [ %.promoted, %.preheader ], [ %16, %7 ]
  %9 = getelementptr inbounds nuw ptr, ptr %0, i64 %.041
  %10 = load ptr, ptr %9, align 8, !tbaa !16
  %11 = getelementptr inbounds nuw double, ptr %10, i64 %.03442
  %12 = load double, ptr %11, align 8, !tbaa !17
  %13 = getelementptr inbounds nuw double, ptr %10, i64 %.03344
  %14 = load double, ptr %13, align 8, !tbaa !17
  %15 = fneg double %12
  %16 = tail call double @llvm.fmuladd.f64(double %15, double %14, double %8)
  store double %16, ptr %6, align 8, !tbaa !17
  %17 = add nuw nsw i64 %.041, 1
  %exitcond.not = icmp eq i64 %17, %.03344
  br i1 %exitcond.not, label %18, label %7, !llvm.loop !30

18:                                               ; preds = %7
  %19 = add nuw nsw i64 %.03442, 1
  %exitcond48.not = icmp eq i64 %19, %1
  br i1 %exitcond48.not, label %.loopexit, label %.preheader, !llvm.loop !31

.loopexit:                                        ; preds = %18, %.lr.ph46
  %20 = getelementptr inbounds nuw double, ptr %5, i64 %.03344
  %21 = load double, ptr %20, align 8, !tbaa !17
  %22 = fcmp ugt double %21, 0.000000e+00
  br i1 %22, label %.lr.ph.preheader, label %23

23:                                               ; preds = %.loopexit
  %24 = add nuw nsw i64 %.03344, 1
  br label %.loopexit39

.lr.ph.preheader:                                 ; preds = %.loopexit
  %25 = tail call double @SUNRsqrt(double noundef %21) #6
  br label %.lr.ph

.lr.ph:                                           ; preds = %.lr.ph.preheader, %.lr.ph
  %.143 = phi i64 [ %29, %.lr.ph ], [ %.03344, %.lr.ph.preheader ]
  %26 = getelementptr inbounds nuw double, ptr %5, i64 %.143
  %27 = load double, ptr %26, align 8, !tbaa !17
  %28 = fdiv double %27, %25
  store double %28, ptr %26, align 8, !tbaa !17
  %29 = add nuw nsw i64 %.143, 1
  %exitcond49.not = icmp eq i64 %29, %1
  br i1 %exitcond49.not, label %._crit_edge, label %.lr.ph, !llvm.loop !32

._crit_edge:                                      ; preds = %.lr.ph
  %30 = add nuw nsw i64 %.03344, 1
  %exitcond50.not = icmp eq i64 %30, %1
  br i1 %exitcond50.not, label %.loopexit39, label %.lr.ph46, !llvm.loop !33

.loopexit39:                                      ; preds = %._crit_edge, %2, %23
  %.035 = phi i64 [ %24, %23 ], [ 0, %2 ], [ 0, %._crit_edge ]
  ret i64 %.035
}